target datalayout = "e-m:e-p270:32:32-p271:32:32-p272:64:64-i64:64-i128:128-f80:128-n8:16:32:64-S128"
target triple = "x86_64-pc-linux-gnu"

%"class.Luau::Variant" = type { i32, [4 x i8], [144 x i8] }
%"struct.Luau::TypeFunctionUnknownType" = type { i8 }

; Function Attrs: mustprogress nounwind uwtable
define linkonce_odr dso_local void @_ZN4Luau7VariantIJNS_25TypeFunctionPrimitiveTypeENS_19TypeFunctionAnyTypeENS_23TypeFunctionUnknownTypeENS_21TypeFunctionNeverTypeENS_25TypeFunctionSingletonTypeENS_21TypeFunctionUnionTypeENS_28TypeFunctionIntersectionTypeENS_24TypeFunctionNegationTypeENS_24TypeFunctionFunctionTypeENS_21TypeFunctionTableTypeENS_21TypeFunctionClassTypeENS_23TypeFunctionGenericTypeEEED2Ev(ptr noundef nonnull align 8 dereferenceable(152) %0) unnamed_addr #2 comdat align 2 personality ptr @__gxx_personality_v0 {
  %2 = alloca ptr, align 8
  store ptr %0, ptr %2, align 8, !tbaa !31
  %3 = load ptr, ptr %2, align 8
  %4 = getelementptr inbounds nuw %"class.Luau::Variant", ptr %3, i32 0, i32 0
  %5 = load i32, ptr %4, align 8, !tbaa !61
  %6 = sext i32 %5 to i64
  %7 = getelementptr inbounds [12 x ptr], ptr @_ZN4Luau7VariantIJNS_25TypeFunctionPrimitiveTypeENS_19TypeFunctionAnyTypeENS_23TypeFunctionUnknownTypeENS_21TypeFunctionNeverTypeENS_25TypeFunctionSingletonTypeENS_21TypeFunctionUnionTypeENS_28TypeFunctionIntersectionTypeENS_24TypeFunctionNegationTypeENS_24TypeFunctionFunctionTypeENS_21TypeFunctionTableTypeENS_21TypeFunctionClassTypeENS_23TypeFunctionGenericTypeEEE9tableDtorE, i64 0, i64 %6
  %8 = load ptr, ptr %7, align 8, !tbaa !22
  %9 = getelementptr inbounds nuw %"class.Luau::Variant", ptr %3, i32 0, i32 2
  invoke void %8(ptr noundef %9)
          to label %10 unwind label %11

10:                                               ; preds = %1
  ret void

11:                                               ; preds = %1
  %12 = landingpad { ptr, i32 }
          catch ptr null
  %13 = extractvalue { ptr, i32 } %12, 0
  call void @__clang_call_terminate(ptr %13) #19
  unreachable
}

; Function Attrs: mustprogress nounwind uwtable
define linkonce_odr dso_local void @_ZN4Luau7VariantIJNS_25TypeFunctionPrimitiveTypeENS_19TypeFunctionAnyTypeENS_23TypeFunctionUnknownTypeENS_21TypeFunctionNeverTypeENS_25TypeFunctionSingletonTypeENS_21TypeFunctionUnionTypeENS_28TypeFunctionIntersectionTypeENS_24TypeFunctionNegationTypeENS_24TypeFunctionFunctionTypeENS_21TypeFunctionTableTypeENS_21TypeFunctionClassTypeENS_23TypeFunctionGenericTypeEEEC2IS3_EEOT_PNSt9enable_ifIXgecl9getTypeIdISF_EELi0EEvE4typeE(ptr noundef nonnull align 8 dereferenceable(152) %0, ptr noundef nonnull align 1 dereferenceable(1) %1, ptr noundef %2) unnamed_addr #2 comdat align 2 {
  %4 = alloca ptr, align 8
  %5 = alloca ptr, align 8
  %6 = alloca ptr, align 8
  %7 = alloca i32, align 4
  store ptr %0, ptr %4, align 8, !tbaa !31
  store ptr %1, ptr %5, align 8, !tbaa !259
  store ptr %2, ptr %6, align 8, !tbaa !22
  %8 = load ptr, ptr %4, align 8
  call void @llvm.lifetime.start.p0(i64 4, ptr %7) #17
  store i32 2, ptr %7, align 4, !tbaa !4
  %9 = getelementptr inbounds nuw %"class.Luau::Variant", ptr %8, i32 0, i32 0
  store i32 2, ptr %9, align 8, !tbaa !61
  call void @llvm.lifetime.end.p0(i64 4, ptr %7) #17
  ret void
}

; Function Attrs: mustprogress uwtable
define internal noundef i32 @_ZN4LuauL13createUnknownEP9lua_State(ptr noundef %0) #3 personality ptr @__gxx_personality_v0 {
  %2 = alloca ptr, align 8
  %3 = alloca %"class.Luau::Variant", align 8
  %4 = alloca %"struct.Luau::TypeFunctionUnknownType", align 1
  %5 = alloca ptr, align 8
  %6 = alloca i32, align 4
  store ptr %0, ptr %2, align 8, !tbaa !25
  %7 = load ptr, ptr %2, align 8, !tbaa !25
  call void @llvm.lifetime.start.p0(i64 1, ptr %4) #17
  call void @_ZN4Luau7VariantIJNS_25TypeFunctionPrimitiveTypeENS_19TypeFunctionAnyTypeENS_23TypeFunctionUnknownTypeENS_21TypeFunctionNeverTypeENS_25TypeFunctionSingletonTypeENS_21TypeFunctionUnionTypeENS_28TypeFunctionIntersectionTypeENS_24TypeFunctionNegationTypeENS_24TypeFunctionFunctionTypeENS_21TypeFunctionTableTypeENS_21TypeFunctionClassTypeENS_23TypeFunctionGenericTypeEEEC2IS3_EEOT_PNSt9enable_ifIXgecl9getTypeIdISF_EELi0EEvE4typeE(ptr noundef nonnull align 8 dereferenceable(152) %3, ptr noundef nonnull align 1 dereferenceable(1) %4, ptr noundef null)
  invoke void @_ZN4Luau17allocTypeUserDataEP9lua_StateNS_7VariantIJNS_25TypeFunctionPrimitiveTypeENS_19TypeFunctionAnyTypeENS_23TypeFunctionUnknownTypeENS_21TypeFunctionNeverTypeENS_25TypeFunctionSingletonTypeENS_21TypeFunctionUnionTypeENS_28TypeFunctionIntersectionTypeENS_24TypeFunctionNegationTypeENS_24TypeFunctionFunctionTypeENS_21TypeFunctionTableTypeENS_21TypeFunctionClassTypeENS_23TypeFunctionGenericTypeEEEE(ptr noundef %7, ptr noundef %3)
          to label %8 unwind label %9

8:                                                ; preds = %1
  call void @_ZN4Luau7VariantIJNS_25TypeFunctionPrimitiveTypeENS_19TypeFunctionAnyTypeENS_23TypeFunctionUnknownTypeENS_21TypeFunctionNeverTypeENS_25TypeFunctionSingletonTypeENS_21TypeFunctionUnionTypeENS_28TypeFunctionIntersectionTypeENS_24TypeFunctionNegationTypeENS_24TypeFunctionFunctionTypeENS_21TypeFunctionTableTypeENS_21TypeFunctionClassTypeENS_23TypeFunctionGenericTypeEEED2Ev(ptr noundef nonnull align 8 dereferenceable(152) %3) #17
  call void @llvm.lifetime.end.p0(i64 1, ptr %4) #17
  ret i32 1

9:                                                ; preds = %1
  %10 = landingpad { ptr, i32 }
          cleanup
  %11 = extractvalue { ptr, i32 } %10, 0
  store ptr %11, ptr %5, align 8
  %12 = extractvalue { ptr, i32 } %10, 1
  store i32 %12, ptr %6, align 4
  call void @_ZN4Luau7VariantIJNS_25TypeFunctionPrimitiveTypeENS_19TypeFunctionAnyTypeENS_23TypeFunctionUnknownTypeENS_21TypeFunctionNeverTypeENS_25TypeFunctionSingletonTypeENS_21TypeFunctionUnionTypeENS_28TypeFunctionIntersectionTypeENS_24TypeFunctionNegationTypeENS_24TypeFunctionFunctionTypeENS_21TypeFunctionTableTypeENS_21TypeFunctionClassTypeENS_23TypeFunctionGenericTypeEEED2Ev(ptr noundef nonnull align 8 dereferenceable(152) %3) #17
  call void @llvm.lifetime.end.p0(i64 1, ptr %4) #17
  br label %13

13:                                               ; preds = %9
  %14 = load ptr, ptr %5, align 8
  %15 = load i32, ptr %6, align 4
  %16 = insertvalue { ptr, i32 } poison, ptr %14, 0
  %17 = insertvalue { ptr, i32 } %16, i32 %15, 1
  resume { ptr, i32 } %17
}